; Function Attrs: mustprogress uwtable
define noundef double @_ZNK6colvar5dist2ERK11colvarvalueS2_(ptr nocapture noundef nonnull readonly align 8 dereferenceable(4624) %0, ptr noundef nonnull align 8 dereferenceable(168) %1, ptr noundef nonnull align 8 dereferenceable(168) %2) local_unnamed_addr #2 align 2 {
  %4 = getelementptr inbounds i8, ptr %0, i64 368
  %5 = load ptr, ptr %4, align 8
  %6 = getelementptr inbounds i8, ptr %5, i64 897
  %7 = load i8, ptr %6, align 1
  %8 = trunc i8 %7 to i1
  br i1 %8, label %13, label %9

9:                                                ; preds = %3
  %10 = getelementptr inbounds i8, ptr %5, i64 929
  %11 = load i8, ptr %10, align 1
  %12 = trunc i8 %11 to i1
  br i1 %12, label %13, label %44

13:                                               ; preds = %9, %3
  %14 = getelementptr inbounds i8, ptr %5, i64 961
  %15 = load i8, ptr %14, align 1
  %16 = trunc i8 %15 to i1
  br i1 %16, label %17, label %44

17:                                               ; preds = %13
  %18 = getelementptr inbounds i8, ptr %5, i64 1025
  %19 = load i8, ptr %18, align 1
  %20 = trunc i8 %19 to i1
  br i1 %20, label %21, label %44

21:                                               ; preds = %17
  %22 = getelementptr inbounds i8, ptr %1, i64 8
  %23 = load double, ptr %22, align 8
  %24 = getelementptr inbounds i8, ptr %2, i64 8
  %25 = load double, ptr %24, align 8
  %26 = fsub double %23, %25
  %27 = getelementptr inbounds i8, ptr %0, i64 3232
  %28 = load double, ptr %27, align 8
  %29 = getelementptr inbounds i8, ptr %0, i64 3224
  %30 = load double, ptr %29, align 8
  %31 = fmul double %30, 5.000000e-01
  %32 = fsub double %28, %31
  %33 = fcmp olt double %26, %32
  br i1 %33, label %34, label %36

34:                                               ; preds = %21
  %35 = fadd double %26, %30
  br label %41

36:                                               ; preds = %21
  %37 = fadd double %28, %31
  %38 = fcmp ogt double %26, %37
  br i1 %38, label %39, label %41

39:                                               ; preds = %36
  %40 = fsub double %26, %30
  br label %41

41:                                               ; preds = %36, %39, %34
  %42 = phi double [ %35, %34 ], [ %40, %39 ], [ %26, %36 ]
  %43 = fmul double %42, %42
  br label %58

44:                                               ; preds = %13, %17, %9
  %45 = getelementptr inbounds i8, ptr %5, i64 1089
  %46 = load i8, ptr %45, align 1
  %47 = trunc i8 %46 to i1
  br i1 %47, label %48, label %56

48:                                               ; preds = %44
  %49 = getelementptr inbounds i8, ptr %0, i64 4432
  %50 = load ptr, ptr %49, align 8
  %51 = load ptr, ptr %50, align 8
  %52 = load ptr, ptr %51, align 8
  %53 = getelementptr inbounds i8, ptr %52, i64 176
  %54 = load ptr, ptr %53, align 8
  %55 = tail call noundef double %54(ptr noundef nonnull align 8 dereferenceable(1648) %51, ptr noundef nonnull align 8 dereferenceable(168) %1, ptr noundef nonnull align 8 dereferenceable(168) %2)
  br label %58

56:                                               ; preds = %44
  %57 = tail call noundef double @_ZNK11colvarvalue5dist2ERKS_(ptr noundef nonnull align 8 dereferenceable(168) %1, ptr noundef nonnull align 8 dereferenceable(168) %2)
  br label %58

58:                                               ; preds = %56, %48, %41
  %.0 = phi double [ %43, %41 ], [ %55, %48 ], [ %57, %56 ]
  ret double %.0
}